#include <math.h>
#include <stdio.h>
#include <stdlib.h>
#include <string.h>

int main(){
	int n,i,j;
	char zfc[33];
	scanf("%d",&n);
    for(i=0;i<n;i++){
		scanf("%s",zfc);
		for(j=0;zfc[j]!='\0';j++){
			if(zfc[j+1]=='\0'){
				if(zfc[j]=='r')
					zfc[j-1]='\0';
				else if(zfc[j]=='g')
					zfc[j-2]='\0';
				else if(zfc[j]=='y')
					zfc[j-1]='\0';
			}
		}
		printf("%s\n",zfc);

		

	}




return 0;
}
