; ModuleID = 'source-C-CXX/56/1409.c'
source_filename = "source-C-CXX/56/1409.c"
target datalayout = "e-m:e-p270:32:32-p271:32:32-p272:64:64-i64:64-f80:128-n8:16:32:64-S128"
target triple = "x86_64-pc-linux-gnu"

@.str = private unnamed_addr constant [3 x i8] c"%d\00", align 1
@.str.1 = private unnamed_addr constant [3 x i8] c"%s\00", align 1

; Function Attrs: nofree nounwind sspstrong uwtable
define dso_local i32 @main() local_unnamed_addr #0 {
  %1 = alloca i32, align 4
  %2 = alloca [33 x i8], align 16
  %3 = bitcast i32* %1 to i8*
  call void @llvm.lifetime.start.p0i8(i64 4, i8* nonnull %3) #4
  %4 = getelementptr inbounds [33 x i8], [33 x i8]* %2, i64 0, i64 0
  call void @llvm.lifetime.start.p0i8(i64 33, i8* nonnull %4) #4
  %5 = call i32 (i8*, ...) @__isoc99_scanf(i8* getelementptr inbounds ([3 x i8], [3 x i8]* @.str, i64 0, i64 0), i32* nonnull %1)
  %6 = load i32, i32* %1, align 4, !tbaa !5
  %7 = icmp sgt i32 %6, 0
  br i1 %7, label %8, label %31

8:                                                ; preds = %0, %26
  %9 = phi i32 [ %28, %26 ], [ 0, %0 ]
  %10 = call i32 (i8*, ...) @__isoc99_scanf(i8* getelementptr inbounds ([3 x i8], [3 x i8]* @.str.1, i64 0, i64 0), i8* nonnull %4)
  %11 = load i8, i8* %4, align 16, !tbaa !9
  %12 = icmp eq i8 %11, 0
  br i1 %12, label %26, label %13

13:                                               ; preds = %8, %13
  %14 = phi i64 [ %16, %13 ], [ 0, %8 ]
  %15 = phi i8 [ %18, %13 ], [ %11, %8 ]
  %16 = add nuw nsw i64 %14, 1
  %17 = getelementptr inbounds [33 x i8], [33 x i8]* %2, i64 0, i64 %16
  %18 = load i8, i8* %17, align 1, !tbaa !9
  %19 = icmp eq i8 %18, 0
  br i1 %19, label %20, label %13

20:                                               ; preds = %13
  switch i8 %15, label %26 [
    i8 114, label %22
    i8 103, label %21
    i8 121, label %22
  ]

21:                                               ; preds = %20
  br label %22

22:                                               ; preds = %20, %20, %21
  %23 = phi i64 [ -2, %21 ], [ -1, %20 ], [ -1, %20 ]
  %24 = add nsw i64 %14, %23
  %25 = getelementptr inbounds [33 x i8], [33 x i8]* %2, i64 0, i64 %24
  store i8 0, i8* %25, align 1, !tbaa !9
  br label %26

26:                                               ; preds = %22, %20, %8
  %27 = call i32 @puts(i8* nonnull %4)
  %28 = add nuw nsw i32 %9, 1
  %29 = load i32, i32* %1, align 4, !tbaa !5
  %30 = icmp slt i32 %28, %29
  br i1 %30, label %8, label %31, !llvm.loop !10

31:                                               ; preds = %26, %0
  call void @llvm.lifetime.end.p0i8(i64 33, i8* nonnull %4) #4
  call void @llvm.lifetime.end.p0i8(i64 4, i8* nonnull %3) #4
  ret i32 0
}

; Function Attrs: argmemonly mustprogress nofree nosync nounwind willreturn
declare void @llvm.lifetime.start.p0i8(i64 immarg, i8* nocapture) #1

; Function Attrs: nofree nounwind
declare noundef i32 @__isoc99_scanf(i8* nocapture noundef readonly, ...) local_unnamed_addr #2

; Function Attrs: argmemonly mustprogress nofree nosync nounwind willreturn
declare void @llvm.lifetime.end.p0i8(i64 immarg, i8* nocapture) #1

; Function Attrs: nofree nounwind
declare noundef i32 @puts(i8* nocapture noundef readonly) local_unnamed_addr #3


!llvm.module.flags = !{!0, !1, !2, !3}
!llvm.ident = !{!4}

!0 = !{i32 1, !"wchar_size", i32 4}
!1 = !{i32 7, !"PIC Level", i32 2}
!2 = !{i32 7, !"PIE Level", i32 2}
!3 = !{i32 7, !"uwtable", i32 1}
!4 = !{!"clang version 13.0.0"}
!5 = !{!6, !6, i64 0}
!6 = !{!"int", !7, i64 0}
!7 = !{!"omnipotent char", !8, i64 0}
!8 = !{!"Simple C/C++ TBAA"}
!9 = !{!7, !7, i64 0}
!10 = distinct !{!10, !11}
!11 = !{!"llvm.loop.mustprogress"}
